target datalayout = "e-m:e-p270:32:32-p271:32:32-p272:64:64-i64:64-i128:128-f80:128-n8:16:32:64-S128"
target triple = "x86_64-pc-linux-gnu"

%"class.std::__cxx11::basic_string" = type { %"struct.std::__cxx11::basic_string<char>::_Alloc_hider", i64, %union.anon }
%"struct.std::__cxx11::basic_string<char>::_Alloc_hider" = type { ptr }
%union.anon = type { i64, [8 x i8] }
%"class.std::map.3" = type { %"class.std::_Rb_tree.4" }
%"class.std::_Rb_tree.4" = type { %"struct.std::_Rb_tree<std::__cxx11::basic_string<char>, std::pair<const std::__cxx11::basic_string<char>, std::vector<std::__cxx11::basic_string<char>>>, std::_Select1st<std::pair<const std::__cxx11::basic_string<char>, std::vector<std::__cxx11::basic_string<char>>>>, std::less<std::__cxx11::basic_string<char>>>::_Rb_tree_impl" }
%"struct.std::_Rb_tree<std::__cxx11::basic_string<char>, std::pair<const std::__cxx11::basic_string<char>, std::vector<std::__cxx11::basic_string<char>>>, std::_Select1st<std::pair<const std::__cxx11::basic_string<char>, std::vector<std::__cxx11::basic_string<char>>>>, std::less<std::__cxx11::basic_string<char>>>::_Rb_tree_impl" = type { %"struct.std::_Rb_tree_key_compare", %"struct.std::_Rb_tree_header" }
%"struct.std::_Rb_tree_key_compare" = type { %"struct.std::less" }
%"struct.std::less" = type { i8 }
%"struct.std::_Rb_tree_header" = type { %"struct.std::_Rb_tree_node_base", i64 }
%"struct.std::_Rb_tree_node_base" = type { i32, ptr, ptr, ptr }
%"class.std::map" = type { %"class.std::_Rb_tree" }
%"class.std::_Rb_tree" = type { %"struct.std::_Rb_tree<std::__cxx11::basic_string<char>, std::pair<const std::__cxx11::basic_string<char>, std::__cxx11::basic_string<char>>, std::_Select1st<std::pair<const std::__cxx11::basic_string<char>, std::__cxx11::basic_string<char>>>, std::less<std::__cxx11::basic_string<char>>>::_Rb_tree_impl" }
%"struct.std::_Rb_tree<std::__cxx11::basic_string<char>, std::pair<const std::__cxx11::basic_string<char>, std::__cxx11::basic_string<char>>, std::_Select1st<std::pair<const std::__cxx11::basic_string<char>, std::__cxx11::basic_string<char>>>, std::less<std::__cxx11::basic_string<char>>>::_Rb_tree_impl" = type { %"struct.std::_Rb_tree_key_compare", %"struct.std::_Rb_tree_header" }
%"class.std::__cxx11::basic_ostringstream" = type { %"class.std::basic_ostream.base", %"class.std::__cxx11::basic_stringbuf", %"class.std::basic_ios" }
%"class.std::basic_ostream.base" = type { ptr }
%"class.std::__cxx11::basic_stringbuf" = type { %"class.std::basic_streambuf", i32, %"class.std::__cxx11::basic_string" }
%"class.std::basic_streambuf" = type { ptr, ptr, ptr, ptr, ptr, ptr, ptr, %"class.std::locale" }
%"class.std::locale" = type { ptr }
%"class.std::basic_ios" = type { %"class.std::ios_base", ptr, i8, i8, ptr, ptr, ptr, ptr }
%"class.std::ios_base" = type { ptr, i64, i64, i32, i32, i32, ptr, %"struct.std::ios_base::_Words", [8 x %"struct.std::ios_base::_Words"], i32, ptr, %"class.std::locale" }
%"struct.std::ios_base::_Words" = type { ptr, i64 }
%class.cmCTestGenericHandler = type <{ ptr, i8, i8, [6 x i8], i64, i32, [4 x i8], ptr, %"class.std::map", %"class.std::map", %"class.std::map.3", %"class.std::map.3", %"class.std::map", i32, [4 x i8] }>

@.str.13 = private unnamed_addr constant [125 x i8] c"generated/home/dtcxzyw/WorkSpace/Projects/compilers/llvm-opt-benchmark/bench/cmake/CMake/Source/CTest/cmCTestTestHandler.cxx\00", align 1
@.str.86 = private unnamed_addr constant [27 x i8] c"parse error: missing tag: \00", align 1
@.str.87 = private unnamed_addr constant [9 x i8] c" found [\00", align 1
@.str.88 = private unnamed_addr constant [2 x i8] c"]\00", align 1

; Function Attrs: mustprogress nounwind uwtable
define linkonce_odr dso_local noundef zeroext i1 @_ZSteqIcSt11char_traitsIcESaIcEEbRKNSt7__cxx1112basic_stringIT_T0_T1_EEPKS5_(ptr noundef nonnull align 8 dereferenceable(32) %0, ptr noundef %1) #5 comdat {
  %3 = alloca ptr, align 8
  %4 = alloca ptr, align 8
  store ptr %0, ptr %3, align 8
  store ptr %1, ptr %4, align 8
  %5 = load ptr, ptr %3, align 8
  %6 = load ptr, ptr %4, align 8
  %7 = call noundef i32 @_ZNKSt7__cxx1112basic_stringIcSt11char_traitsIcESaIcEE7compareEPKc(ptr noundef nonnull align 8 dereferenceable(32) %5, ptr noundef %6) #3
  %8 = icmp eq i32 %7, 0
  ret i1 %8
}

; Function Attrs: mustprogress uwtable
define dso_local noundef zeroext i1 @_ZN18cmCTestTestHandler8GetValueEPKcRmRSi(ptr noundef nonnull align 8 dereferenceable(4416) %0, ptr noundef %1, ptr noundef nonnull align 8 dereferenceable(8) %2, ptr noundef nonnull align 8 dereferenceable(16) %3) #4 align 2 personality ptr @__gxx_personality_v0 {
  %5 = alloca ptr, align 8
  %6 = alloca ptr, align 8
  %7 = alloca ptr, align 8
  %8 = alloca ptr, align 8
  %9 = alloca %"class.std::__cxx11::basic_string", align 8
  %10 = alloca ptr, align 8
  %11 = alloca i32, align 4
  %12 = alloca i8, align 1
  %13 = alloca %"class.std::__cxx11::basic_ostringstream", align 8
  %14 = alloca %"class.std::__cxx11::basic_string", align 8
  store ptr %0, ptr %5, align 8
  store ptr %1, ptr %6, align 8
  store ptr %2, ptr %7, align 8
  store ptr %3, ptr %8, align 8
  %15 = load ptr, ptr %5, align 8
  call void @_ZNSt7__cxx1112basic_stringIcSt11char_traitsIcESaIcEEC1Ev(ptr noundef nonnull align 8 dereferenceable(32) %9) #3
  %16 = load ptr, ptr %8, align 8
  %17 = invoke noundef zeroext i1 @_ZN5cmsys11SystemTools17GetLineFromStreamERSiRNSt7__cxx1112basic_stringIcSt11char_traitsIcESaIcEEEPbm(ptr noundef nonnull align 8 dereferenceable(16) %16, ptr noundef nonnull align 8 dereferenceable(32) %9, ptr noundef null, i64 noundef -1)
          to label %18 unwind label %31

18:                                               ; preds = %4
  store i8 1, ptr %12, align 1
  %19 = load ptr, ptr %6, align 8
  %20 = invoke noundef zeroext i1 @_ZSteqIcSt11char_traitsIcESaIcEEbRKNSt7__cxx1112basic_stringIT_T0_T1_EEPKS5_(ptr noundef nonnull align 8 dereferenceable(32) %9, ptr noundef %19)
          to label %21 unwind label %31

21:                                               ; preds = %18
  br i1 %20, label %22, label %35

22:                                               ; preds = %21
  %23 = load ptr, ptr %8, align 8
  %24 = load ptr, ptr %7, align 8
  %25 = invoke noundef nonnull align 8 dereferenceable(16) ptr @_ZNSirsERm(ptr noundef nonnull align 8 dereferenceable(16) %23, ptr noundef nonnull align 8 dereferenceable(8) %24)
          to label %26 unwind label %31

26:                                               ; preds = %22
  %27 = load ptr, ptr %8, align 8
  %28 = invoke noundef zeroext i1 @_ZN5cmsys11SystemTools17GetLineFromStreamERSiRNSt7__cxx1112basic_stringIcSt11char_traitsIcESaIcEEEPbm(ptr noundef nonnull align 8 dereferenceable(16) %27, ptr noundef nonnull align 8 dereferenceable(32) %9, ptr noundef null, i64 noundef -1)
          to label %29 unwind label %31

29:                                               ; preds = %26
  %30 = zext i1 %28 to i8
  store i8 %30, ptr %12, align 1
  br label %67

31:                                               ; preds = %36, %26, %22, %18, %4
  %32 = landingpad { ptr, i32 }
          cleanup
  %33 = extractvalue { ptr, i32 } %32, 0
  store ptr %33, ptr %10, align 8
  %34 = extractvalue { ptr, i32 } %32, 1
  store i32 %34, ptr %11, align 4
  br label %70

35:                                               ; preds = %21
  br label %36

36:                                               ; preds = %35
  invoke void @_ZNSt7__cxx1119basic_ostringstreamIcSt11char_traitsIcESaIcEEC1Ev(ptr noundef nonnull align 8 dereferenceable(112) %13)
          to label %37 unwind label %31

37:                                               ; preds = %36
  %38 = invoke noundef nonnull align 8 dereferenceable(8) ptr @_ZStlsISt11char_traitsIcEERSt13basic_ostreamIcT_ES5_PKc(ptr noundef nonnull align 8 dereferenceable(8) %13, ptr noundef @.str.86)
          to label %39 unwind label %58

39:                                               ; preds = %37
  %40 = load ptr, ptr %6, align 8
  %41 = invoke noundef nonnull align 8 dereferenceable(8) ptr @_ZStlsISt11char_traitsIcEERSt13basic_ostreamIcT_ES5_PKc(ptr noundef nonnull align 8 dereferenceable(8) %38, ptr noundef %40)
          to label %42 unwind label %58

42:                                               ; preds = %39
  %43 = invoke noundef nonnull align 8 dereferenceable(8) ptr @_ZStlsISt11char_traitsIcEERSt13basic_ostreamIcT_ES5_PKc(ptr noundef nonnull align 8 dereferenceable(8) %41, ptr noundef @.str.87)
          to label %44 unwind label %58

44:                                               ; preds = %42
  %45 = invoke noundef nonnull align 8 dereferenceable(8) ptr @_ZStlsIcSt11char_traitsIcESaIcEERSt13basic_ostreamIT_T0_ES7_RKNSt7__cxx1112basic_stringIS4_S5_T1_EE(ptr noundef nonnull align 8 dereferenceable(8) %43, ptr noundef nonnull align 8 dereferenceable(32) %9)
          to label %46 unwind label %58

46:                                               ; preds = %44
  %47 = invoke noundef nonnull align 8 dereferenceable(8) ptr @_ZStlsISt11char_traitsIcEERSt13basic_ostreamIcT_ES5_PKc(ptr noundef nonnull align 8 dereferenceable(8) %45, ptr noundef @.str.88)
          to label %48 unwind label %58

48:                                               ; preds = %46
  %49 = invoke noundef nonnull align 8 dereferenceable(8) ptr @_ZNSolsEPFRSoS_E(ptr noundef nonnull align 8 dereferenceable(8) %47, ptr noundef @_ZSt4endlIcSt11char_traitsIcEERSt13basic_ostreamIT_T0_ES6_)
          to label %50 unwind label %58

50:                                               ; preds = %48
  %51 = getelementptr inbounds %class.cmCTestGenericHandler, ptr %15, i32 0, i32 7
  %52 = load ptr, ptr %51, align 8
  invoke void @_ZNKSt7__cxx1119basic_ostringstreamIcSt11char_traitsIcESaIcEE3strEv(ptr dead_on_unwind writable sret(%"class.std::__cxx11::basic_string") align 8 %14, ptr noundef nonnull align 8 dereferenceable(112) %13)
          to label %53 unwind label %58

53:                                               ; preds = %50
  %54 = call noundef ptr @_ZNKSt7__cxx1112basic_stringIcSt11char_traitsIcESaIcEE5c_strEv(ptr noundef nonnull align 8 dereferenceable(32) %14) #3
  invoke void @_ZN7cmCTest3LogEiPKciS1_b(ptr noundef nonnull align 8 dereferenceable(8) %52, i32 noundef 7, ptr noundef @.str.13, i32 noundef 1327, ptr noundef %54, i1 noundef zeroext false)
          to label %55 unwind label %62

55:                                               ; preds = %53
  call void @_ZNSt7__cxx1112basic_stringIcSt11char_traitsIcESaIcEED1Ev(ptr noundef nonnull align 8 dereferenceable(32) %14) #3
  call void @_ZNSt7__cxx1119basic_ostringstreamIcSt11char_traitsIcESaIcEED1Ev(ptr noundef nonnull align 8 dereferenceable(112) %13) #3
  br label %56

56:                                               ; preds = %55
  br label %57

57:                                               ; preds = %56
  store i8 0, ptr %12, align 1
  br label %67

58:                                               ; preds = %50, %48, %46, %44, %42, %39, %37
  %59 = landingpad { ptr, i32 }
          cleanup
  %60 = extractvalue { ptr, i32 } %59, 0
  store ptr %60, ptr %10, align 8
  %61 = extractvalue { ptr, i32 } %59, 1
  store i32 %61, ptr %11, align 4
  br label %66

62:                                               ; preds = %53
  %63 = landingpad { ptr, i32 }
          cleanup
  %64 = extractvalue { ptr, i32 } %63, 0
  store ptr %64, ptr %10, align 8
  %65 = extractvalue { ptr, i32 } %63, 1
  store i32 %65, ptr %11, align 4
  call void @_ZNSt7__cxx1112basic_stringIcSt11char_traitsIcESaIcEED1Ev(ptr noundef nonnull align 8 dereferenceable(32) %14) #3
  br label %66

66:                                               ; preds = %62, %58
  call void @_ZNSt7__cxx1119basic_ostringstreamIcSt11char_traitsIcESaIcEED1Ev(ptr noundef nonnull align 8 dereferenceable(112) %13) #3
  br label %70

67:                                               ; preds = %57, %29
  %68 = load i8, ptr %12, align 1
  %69 = trunc i8 %68 to i1
  call void @_ZNSt7__cxx1112basic_stringIcSt11char_traitsIcESaIcEED1Ev(ptr noundef nonnull align 8 dereferenceable(32) %9) #3
  ret i1 %69

70:                                               ; preds = %66, %31
  call void @_ZNSt7__cxx1112basic_stringIcSt11char_traitsIcESaIcEED1Ev(ptr noundef nonnull align 8 dereferenceable(32) %9) #3
  br label %71

71:                                               ; preds = %70
  %72 = load ptr, ptr %10, align 8
  %73 = load i32, ptr %11, align 4
  %74 = insertvalue { ptr, i32 } poison, ptr %72, 0
  %75 = insertvalue { ptr, i32 } %74, i32 %73, 1
  resume { ptr, i32 } %75
}